(dp0
I1
(ireadTDL
tdl
p1
(dp2
S'category'
p3
(lp4
S'Expense'
p5
aS'Entertainment'
p6
asS'capture'
p7
(lp8
(S'Amount'
p9
S'Amount of the bill including VAT but excluding tip'
p10
S'mandatory'
p11
S'finance'
p12
S'<errorMsg>'
p13
tp14
a(S'Tip'
p15
S'Tip that was paid'
p16
S'mandatory'
p17
S'finance'
p18
S'<errorMsg>'
p19
tp20
a(S'Date'
p21
S'Date expense incurred'
p22
S'mandatory'
p23
S'date'
p24
S'<errorMsg>'
p25
tp26
a(S'Description'
p27
S'Brief description'
p28
S'mandatory'
p29
S'textbox'
p30
S'<errorMsg>'
p31
tp32
a(S'Document No'
p33
S'Reference number to relate to paper source'
p34
S'optional'
p35
S'text'
p36
S'<errorMsg>'
p37
tp38
asS'description'
p39
S'Entertainment expense paid by company card ............................................'
p40
sS'formID'
p41
I1
sS'navigation'
p42
S'Entertainment paid by company card'
p43
sS'capture_ss'
p44
(dp45
sbsI2
(ireadTDL
tdl
p46
(dp47
g3
(lp48
S'Expense'
p49
aS'Stationary'
p50
asg7
(lp51
(S'Amount'
p52
S'Amount of the stationary invoice including VAT'
p53
S'mandatory'
p54
S'finance'
p55
S'<errorMsg>'
p56
tp57
a(S'Date'
p58
S'Date expense incurred'
p59
S'*'
p60
S'date'
p61
S'<errorMsg>'
p62
tp63
a(S'Description'
p64
S'Brief description'
p65
g60
S'textbox'
p66
S'<errorMsg>'
p67
tp68
a(S'Document No'
p69
S'Reference number to relate to invoice'
p70
S'optional'
p71
S'text'
p72
S'<errorMsg>'
p73
tp74
asg39
S'Stationary expense paid by company card ...............................................'
p75
sg41
I2
sg42
S'Stationary paid by company card'
p76
sg44
(dp77
sbsI3
(ireadTDL
tdl
p78
(dp79
g3
(lp80
S'Expense'
p81
aS'Entertainment'
p82
asg7
(lp83
(S'Amount'
p84
S'Amount of the bill including VAT but excluding tip'
p85
S'mandatory'
p86
S'finance'
p87
S'<errorMsg>'
p88
tp89
a(S'Tip'
p90
S'Tip that was paid'
p91
S'mandatory'
p92
S'finance'
p93
S'<errorMsg>'
p94
tp95
a(S'Date'
p96
S'Date expense incurred'
p97
S'mandatory'
p98
S'date'
p99
S'<errorMsg>'
p100
tp101
a(S'Description'
p102
S'Brief description'
p103
S'mandatory'
p104
S'textbox'
p105
S'<errorMsg>'
p106
tp107
a(S'Document No'
p108
S'Reference number to relate to paper source'
p109
S'optional'
p110
S'text'
p111
S'<errorMsg>'
p112
tp113
asg39
S'Entertainment expense paid by company card ............................................'
p114
sg41
I3
sg42
S'AEntertainment paid by company card'
p115
sg44
(dp116
sbs.