(dp0
I1
(iglobalClasses
tdl
p1
(dp2
S'category'
p3
(lp4
S'Expense'
p5
aS'Entertainment'
p6
asS'capture'
p7
(lp8
(S'Amount'
p9
S'Amount of the bill including VAT but excluding tip'
p10
S'mandatory'
p11
S'finance'
p12
S'<errorMsg>'
p13
tp14
a(S'Tip'
p15
S'Tip that was paid'
p16
S'mandatory'
p17
S'finance'
p18
S'<errorMsg>'
p19
tp20
a(S'Date'
p21
S'Date expense incurred'
p22
S'mandatory'
p23
S'date'
p24
S'<errorMsg>'
p25
tp26
a(S'Description'
p27
S'Brief description'
p28
S'mandatory'
p29
S'textbox'
p30
S'<errorMsg>'
p31
tp32
a(S'Document No'
p33
S'Reference number to relate to paper source'
p34
S'optional'
p35
S'text'
p36
S'<errorMsg>'
p37
tp38
asS'description'
p39
S'Entertainment expense paid by company card ............................................'
p40
sS'formID'
p41
I1
sS'navigation'
p42
S'Entertainment paid by company card'
p43
sS'capture_ss'
p44
(dp45
S'date'
p46
(I01
g24
tp47
sS'document-no'
p48
(I00
g36
tp49
sS'tip'
p50
(I01
g18
tp51
sS'amount'
p52
(I01
g12
tp53
sS'description'
p54
(I01
g30
tp55
ssbsI2
(iglobalClasses
tdl
p56
(dp57
g3
(lp58
S'Expense'
p59
aS'Stationary'
p60
asg7
(lp61
(S'Amount'
p62
S'Amount of the stationary invoice including VAT'
p63
S'mandatory'
p64
S'finance'
p65
S'<errorMsg>'
p66
tp67
a(S'Date'
p68
S'Date expense incurred'
p69
S'*'
p70
S'date'
p71
S'<errorMsg>'
p72
tp73
a(S'Description'
p74
S'Brief description'
p75
g70
S'textbox'
p76
S'<errorMsg>'
p77
tp78
a(S'Document No'
p79
S'Reference number to relate to invoice'
p80
S'optional'
p81
S'text'
p82
S'<errorMsg>'
p83
tp84
asg39
S'Stationary expense paid by company card ...............................................'
p85
sg41
I2
sg42
S'Stationary paid by company card'
p86
sg44
(dp87
S'date'
p88
(I00
g71
tp89
sS'document-no'
p90
(I00
g82
tp91
sS'amount'
p92
(I01
g65
tp93
sS'description'
p94
(I00
g76
tp95
ssbsI3
(iglobalClasses
tdl
p96
(dp97
g3
(lp98
S'Expense'
p99
aS'Entertainment'
p100
asg7
(lp101
(S'Amount'
p102
S'Amount of the bill including VAT but excluding tip'
p103
S'mandatory'
p104
S'finance'
p105
S'<errorMsg>'
p106
tp107
a(S'Tip'
p108
S'Tip that was paid'
p109
S'mandatory'
p110
S'finance'
p111
S'<errorMsg>'
p112
tp113
a(S'Date'
p114
S'Date expense incurred'
p115
S'mandatory'
p116
S'date'
p117
S'<errorMsg>'
p118
tp119
a(S'Description'
p120
S'Brief description'
p121
S'mandatory'
p122
S'textbox'
p123
S'<errorMsg>'
p124
tp125
a(S'Document No'
p126
S'Reference number to relate to paper source'
p127
S'optional'
p128
S'text'
p129
S'<errorMsg>'
p130
tp131
asg39
S'Entertainment expense paid by company card ............................................'
p132
sg41
I3
sg42
S'AEntertainment paid by company card'
p133
sg44
(dp134
S'date'
p135
(I01
g117
tp136
sS'document-no'
p137
(I00
g129
tp138
sS'tip'
p139
(I01
g111
tp140
sS'amount'
p141
(I01
g105
tp142
sS'description'
p143
(I01
g123
tp144
ssbs.