(dp0
I1
(ireadTDL
tdl
p1
(dp2
S'category'
p3
(lp4
S'Expense'
p5
aS'Entertainment'
p6
asS'capture'
p7
(lp8
(S'Amount'
p9
S'Amount of the bill including VAT but excluding tip'
p10
S'mandatory'
p11
S'finance'
p12
S'<errorMsg>'
p13
tp14
a(S'Tip'
p15
S'Tip that was paid'
p16
S'mandatory'
p17
S'finance'
p18
S'<errorMsg>'
p19
tp20
a(S'Date'
p21
S'Date expense incurred'
p22
S'mandatory'
p23
S'date'
p24
S'<errorMsg>'
p25
tp26
a(S'Description'
p27
S'Brief description'
p28
S'mandatory'
p29
S'textbox'
p30
S'<errorMsg>'
p31
tp32
a(S'Document No'
p33
S'Reference number to relate to paper source'
p34
S'optional'
p35
S'text'
p36
S'<errorMsg>'
p37
tp38
asS'navigation'
p39
S'Entertainment paid by company card'
p40
sS'description'
p41
S'Entertainment expense paid by company card ............................................'
p42
sS'formID'
p43
I1
sbsI2
(ireadTDL
tdl
p44
(dp45
g3
(lp46
S'Expense'
p47
aS'Stationary'
p48
asg7
(lp49
(S'Amount'
p50
S'Amount of the stationary invoice including VAT'
p51
S'mandatory'
p52
S'finance'
p53
S'<errorMsg>'
p54
tp55
a(S'Date'
p56
S'Date expense incurred'
p57
S'*'
p58
S'date'
p59
S'<errorMsg>'
p60
tp61
a(S'Description'
p62
S'Brief description'
p63
g58
S'textbox'
p64
S'<errorMsg>'
p65
tp66
a(S'Document No'
p67
S'Reference number to relate to invoice'
p68
S'optional'
p69
S'text'
p70
S'<errorMsg>'
p71
tp72
asg39
S'Stationary paid by company card'
p73
sg41
S'Stationary expense paid by company card ...............................................'
p74
sg43
I2
sbsI3
(ireadTDL
tdl
p75
(dp76
g3
(lp77
S'Expense'
p78
aS'Entertainment'
p79
asg7
(lp80
(S'Amount'
p81
S'Amount of the bill including VAT but excluding tip'
p82
S'mandatory'
p83
S'finance'
p84
S'<errorMsg>'
p85
tp86
a(S'Tip'
p87
S'Tip that was paid'
p88
S'mandatory'
p89
S'finance'
p90
S'<errorMsg>'
p91
tp92
a(S'Date'
p93
S'Date expense incurred'
p94
S'mandatory'
p95
S'date'
p96
S'<errorMsg>'
p97
tp98
a(S'Description'
p99
S'Brief description'
p100
S'mandatory'
p101
S'textbox'
p102
S'<errorMsg>'
p103
tp104
a(S'Document No'
p105
S'Reference number to relate to paper source'
p106
S'optional'
p107
S'text'
p108
S'<errorMsg>'
p109
tp110
asg39
S'AEntertainment paid by company card'
p111
sg41
S'Entertainment expense paid by company card ............................................'
p112
sg43
I3
sbs.